; Function Attrs: nounwind uwtable
define hidden void @Curl_sasl_cleanup(ptr noundef %0, i16 noundef zeroext %1) local_unnamed_addr #0 {
  %3 = icmp eq i16 %1, 64
  br i1 %3, label %4, label %6

4:                                                ; preds = %2
  %5 = getelementptr inbounds nuw i8, ptr %0, i64 1040
  tail call void @Curl_auth_cleanup_ntlm(ptr noundef nonnull %5) #8
  br label %6

6:                                                ; preds = %4, %2
  ret void
}